#include <math.h>
#include <stdio.h>
#include <stdlib.h>
#include <string.h>


int main()
{
    int n,i,max=0;
    char str[100],substr[100],m;
    while(scanf("%s%s",str,substr)!=EOF){
    n=strlen(str);
    m=str[0];
    for(i=0;i<n;i++){
        if(str[i]>m){
            m=str[i];
            max=i;
        }
    }
    for(i=0;i<n;i++){
        printf("%c",str[i]);
        if(i==max)
        printf("%s",substr);
    }
    printf("\n");
    }
    return 0;
}